target datalayout = "e-m:e-p270:32:32-p271:32:32-p272:64:64-i64:64-i128:128-f80:128-n8:16:32:64-S128"
target triple = "x86_64-pc-linux-gnu"

%struct.SDL_WaylandDataOffer = type { ptr, %struct.wl_list, ptr, ptr, i32 }
%struct.wl_list = type { ptr, ptr }
%struct.SDL_MimeDataList = type { ptr, ptr, i64, %struct.wl_list }

; Function Attrs: nounwind uwtable
define internal ptr @mime_data_list_find(ptr noundef %0, ptr noundef %1) #0 {
  %3 = alloca ptr, align 8
  %4 = alloca ptr, align 8
  %5 = alloca ptr, align 8
  %6 = alloca ptr, align 8
  store ptr %0, ptr %3, align 8
  store ptr %1, ptr %4, align 8
  call void @llvm.lifetime.start.p0(i64 8, ptr %5) #9
  store ptr null, ptr %5, align 8
  call void @llvm.lifetime.start.p0(i64 8, ptr %6) #9
  store ptr null, ptr %6, align 8
  %7 = load ptr, ptr %3, align 8
  %8 = getelementptr inbounds nuw %struct.wl_list, ptr %7, i32 0, i32 1
  %9 = load ptr, ptr %8, align 8
  %10 = getelementptr inbounds i8, ptr %9, i64 -24
  store ptr %10, ptr %6, align 8
  br label %11

11:                                               ; preds = %26, %2
  %12 = load ptr, ptr %6, align 8
  %13 = getelementptr inbounds nuw %struct.SDL_MimeDataList, ptr %12, i32 0, i32 3
  %14 = load ptr, ptr %3, align 8
  %15 = icmp ne ptr %13, %14
  br i1 %15, label %16, label %32

16:                                               ; preds = %11
  %17 = load ptr, ptr %6, align 8
  %18 = getelementptr inbounds nuw %struct.SDL_MimeDataList, ptr %17, i32 0, i32 0
  %19 = load ptr, ptr %18, align 8
  %20 = load ptr, ptr %4, align 8
  %21 = call i32 @SDL_strcmp_REAL(ptr noundef %19, ptr noundef %20)
  %22 = icmp eq i32 %21, 0
  br i1 %22, label %23, label %25

23:                                               ; preds = %16
  %24 = load ptr, ptr %6, align 8
  store ptr %24, ptr %5, align 8
  br label %32

25:                                               ; preds = %16
  br label %26

26:                                               ; preds = %25
  %27 = load ptr, ptr %6, align 8
  %28 = getelementptr inbounds nuw %struct.SDL_MimeDataList, ptr %27, i32 0, i32 3
  %29 = getelementptr inbounds nuw %struct.wl_list, ptr %28, i32 0, i32 1
  %30 = load ptr, ptr %29, align 8
  %31 = getelementptr inbounds i8, ptr %30, i64 -24
  store ptr %31, ptr %6, align 8
  br label %11, !llvm.loop !11

32:                                               ; preds = %23, %11
  %33 = load ptr, ptr %5, align 8
  call void @llvm.lifetime.end.p0(i64 8, ptr %6) #9
  call void @llvm.lifetime.end.p0(i64 8, ptr %5) #9
  ret ptr %33
}

; Function Attrs: nounwind uwtable
define hidden zeroext i1 @Wayland_data_offer_has_mime(ptr noundef %0, ptr noundef %1) #0 {
  %3 = alloca ptr, align 8
  %4 = alloca ptr, align 8
  %5 = alloca i8, align 1
  store ptr %0, ptr %3, align 8
  store ptr %1, ptr %4, align 8
  call void @llvm.lifetime.start.p0(i64 1, ptr %5) #9
  store i8 0, ptr %5, align 1
  %6 = load ptr, ptr %3, align 8
  %7 = icmp ne ptr %6, null
  br i1 %7, label %8, label %15

8:                                                ; preds = %2
  %9 = load ptr, ptr %3, align 8
  %10 = getelementptr inbounds nuw %struct.SDL_WaylandDataOffer, ptr %9, i32 0, i32 1
  %11 = load ptr, ptr %4, align 8
  %12 = call ptr @mime_data_list_find(ptr noundef %10, ptr noundef %11)
  %13 = icmp ne ptr %12, null
  %14 = zext i1 %13 to i8
  store i8 %14, ptr %5, align 1
  br label %15

15:                                               ; preds = %8, %2
  %16 = load i8, ptr %5, align 1, !range !5, !noundef !6
  %17 = trunc i8 %16 to i1
  call void @llvm.lifetime.end.p0(i64 1, ptr %5) #9
  ret i1 %17
}