; Function Attrs: nounwind uwtable
define hidden noundef zeroext i1 @Wayland_data_offer_has_mime(ptr noundef readonly captures(address) %0, ptr noundef %1) local_unnamed_addr #0 {
  %.not = icmp eq ptr %0, null
  br i1 %.not, label %mime_data_list_find.exit, label %3

3:                                                ; preds = %2
  %4 = getelementptr inbounds nuw i8, ptr %0, i64 8
  br label %5

5:                                                ; preds = %6, %3
  %.pn10.i = phi ptr [ %4, %3 ], [ %.pn.i, %6 ]
  %.pn.in.i = getelementptr inbounds nuw i8, ptr %.pn10.i, i64 8
  %.pn.i = load ptr, ptr %.pn.in.i, align 8
  %.not.i.not.not.not = icmp ne ptr %.pn.i, %4
  br i1 %.not.i.not.not.not, label %6, label %mime_data_list_find.exit

6:                                                ; preds = %5
  %.0.i = getelementptr inbounds i8, ptr %.pn.i, i64 -24
  %7 = load ptr, ptr %.0.i, align 8
  %8 = tail call i32 @SDL_strcmp_REAL(ptr noundef %7, ptr noundef %1) #12
  %9 = icmp eq i32 %8, 0
  br i1 %9, label %mime_data_list_find.exit, label %5, !llvm.loop !9

mime_data_list_find.exit:                         ; preds = %5, %6, %2
  %.0 = phi i1 [ false, %2 ], [ %.not.i.not.not.not, %6 ], [ %.not.i.not.not.not, %5 ]
  ret i1 %.0
}